; Function Attrs: mustprogress uwtable
define void @_ZNK3gmx14ForceProviders15calculateForcesERKNS_18ForceProviderInputEPNS_19ForceProviderOutputE(ptr nocapture noundef nonnull readonly align 8 dereferenceable(8) %0, ptr noundef nonnull align 8 dereferenceable(120) %1, ptr noundef %2) local_unnamed_addr #0 align 2 {
  %4 = load ptr, ptr %0, align 8
  %5 = load ptr, ptr %4, align 8
  %6 = getelementptr inbounds i8, ptr %4, i64 8
  %7 = load ptr, ptr %6, align 8
  %.not9 = icmp eq ptr %5, %7
  br i1 %.not9, label %._crit_edge, label %.lr.ph

.lr.ph:                                           ; preds = %3, %.lr.ph
  %.sroa.06.010 = phi ptr [ %11, %.lr.ph ], [ %5, %3 ]
  %8 = load ptr, ptr %.sroa.06.010, align 8
  %9 = load ptr, ptr %8, align 8
  %10 = load ptr, ptr %9, align 8
  tail call void %10(ptr noundef nonnull align 8 dereferenceable(8) %8, ptr noundef nonnull align 8 dereferenceable(120) %1, ptr noundef %2)
  %11 = getelementptr inbounds i8, ptr %.sroa.06.010, i64 8
  %.not = icmp eq ptr %11, %7
  br i1 %.not, label %._crit_edge, label %.lr.ph

._crit_edge:                                      ; preds = %.lr.ph, %3
  ret void
}